target datalayout = "e-m:e-p270:32:32-p271:32:32-p272:64:64-i64:64-i128:128-f80:128-n8:16:32:64-S128"
target triple = "x86_64-pc-linux-gnu"

@_ZN24ctx_propagate_assertionsC1ER11ast_manager = hidden unnamed_addr alias void (ptr, ptr), ptr @_ZN24ctx_propagate_assertionsC2ER11ast_manager
@_ZN19ctx_simplify_tacticC1ER11ast_managerPNS_10simplifierERK10params_ref = hidden unnamed_addr alias void (ptr, ptr, ptr, ptr), ptr @_ZN19ctx_simplify_tacticC2ER11ast_managerPNS_10simplifierERK10params_ref

; Function Attrs: mustprogress uwtable
define hidden noundef ptr @_Z22mk_ctx_simplify_tacticR11ast_managerRK10params_ref(ptr noundef nonnull align 8 dereferenceable(976) %0, ptr noundef nonnull align 8 dereferenceable(8) %1) #4 {
  %3 = alloca ptr, align 8
  %4 = alloca ptr, align 8
  store ptr %0, ptr %3, align 8, !tbaa !8
  store ptr %1, ptr %4, align 8, !tbaa !134
  %5 = call noalias noundef ptr @_ZN6memory8allocateEm(i64 noundef 32)
  %6 = load ptr, ptr %3, align 8, !tbaa !8
  %7 = call noalias noundef ptr @_ZN6memory8allocateEm(i64 noundef 72)
  %8 = load ptr, ptr %3, align 8, !tbaa !8
  call void @_ZN24ctx_propagate_assertionsC1ER11ast_manager(ptr noundef nonnull align 8 dereferenceable(72) %7, ptr noundef nonnull align 8 dereferenceable(976) %8)
  %9 = load ptr, ptr %4, align 8, !tbaa !134
  call void @_ZN19ctx_simplify_tacticC1ER11ast_managerPNS_10simplifierERK10params_ref(ptr noundef nonnull align 8 dereferenceable(32) %5, ptr noundef nonnull align 8 dereferenceable(976) %6, ptr noundef %7, ptr noundef nonnull align 8 dereferenceable(8) %9)
  %10 = call noundef ptr @_Z5cleanP6tactic(ptr noundef %5)
  ret ptr %10
}