; Function Attrs: mustprogress uwtable
define hidden noundef ptr @_Z22mk_ctx_simplify_tacticR11ast_managerRK10params_ref(ptr noundef nonnull align 8 dereferenceable(976) %0, ptr noundef nonnull align 8 dereferenceable(8) %1) local_unnamed_addr #3 personality ptr @__gxx_personality_v0 {
  %3 = tail call noalias noundef ptr @_ZN6memory8allocateEm(i64 noundef 32)
  %4 = tail call noalias noundef ptr @_ZN6memory8allocateEm(i64 noundef 72)
  store ptr getelementptr inbounds nuw inrange(-16, 72) (i8, ptr @_ZTV24ctx_propagate_assertions, i64 16), ptr %4, align 8, !tbaa !3
  %5 = getelementptr inbounds nuw i8, ptr %4, i64 16
  store ptr %0, ptr %5, align 8, !tbaa !6
  %6 = getelementptr inbounds nuw i8, ptr %4, i64 24
  %7 = tail call noalias noundef ptr @_ZN6memory8allocateEm(i64 noundef 128)
  tail call void @llvm.memset.p0.i64(ptr noundef nonnull align 8 dereferenceable(128) %7, i8 0, i64 128, i1 false)
  store ptr %7, ptr %6, align 8, !tbaa !10
  %8 = getelementptr inbounds nuw i8, ptr %4, i64 32
  store i32 8, ptr %8, align 8, !tbaa !14
  %9 = getelementptr inbounds nuw i8, ptr %4, i64 36
  store i32 0, ptr %9, align 4, !tbaa !15
  %10 = getelementptr inbounds nuw i8, ptr %4, i64 40
  store i32 0, ptr %10, align 8, !tbaa !16
  %11 = getelementptr inbounds nuw i8, ptr %4, i64 48
  %12 = ptrtoint ptr %0 to i64
  store i64 %12, ptr %11, align 8, !tbaa !6
  %13 = getelementptr inbounds nuw i8, ptr %4, i64 56
  tail call void @llvm.memset.p0.i64(ptr noundef nonnull align 8 dereferenceable(16) %13, i8 0, i64 16, i1 false)
  %14 = getelementptr inbounds nuw i8, ptr %3, i64 8
  store i32 0, ptr %14, align 8, !tbaa !83
  store ptr getelementptr inbounds nuw inrange(-16, 192) (i8, ptr @_ZTV19ctx_simplify_tactic, i64 16), ptr %3, align 8, !tbaa !3
  %15 = getelementptr inbounds nuw i8, ptr %3, i64 16
  %16 = tail call noalias noundef ptr @_ZN6memory8allocateEm(i64 noundef 648)
  tail call void @_ZN19ctx_simplify_tactic3impC2ER11ast_managerPNS_10simplifierERK10params_ref(ptr noundef nonnull align 8 dereferenceable(641) %16, ptr noundef nonnull align 8 dereferenceable(976) %0, ptr noundef nonnull %4, ptr noundef nonnull align 8 dereferenceable(8) %1)
  store ptr %16, ptr %15, align 8, !tbaa !86
  %17 = getelementptr inbounds nuw i8, ptr %3, i64 24
  tail call void @_ZN10params_refC1ERKS_(ptr noundef nonnull align 8 dereferenceable(8) %17, ptr noundef nonnull align 8 dereferenceable(8) %1)
  %18 = tail call noundef ptr @_Z5cleanP6tactic(ptr noundef nonnull %3)
  ret ptr %18
}